target datalayout = "e-m:e-p270:32:32-p271:32:32-p272:64:64-i64:64-i128:128-f80:128-n8:16:32:64-S128"
target triple = "x86_64-pc-linux-gnu"

%struct.mbedtls_gcm_context = type { %struct.mbedtls_cipher_context_t, [16 x i64], [16 x i64], i64, i64, [16 x i8], [16 x i8], [16 x i8], i32 }
%struct.mbedtls_cipher_context_t = type { ptr, i32, i32, [16 x i8], i64, [16 x i8], i64, ptr }

; Function Attrs: mustprogress uwtable
define hidden i32 @mbedtls_gcm_finish(ptr noundef %0, ptr noundef %1, i64 noundef %2, ptr noundef %3, ptr noundef %4, i64 noundef %5) #2 {
  %7 = alloca i32, align 4
  %8 = alloca ptr, align 8
  %9 = alloca ptr, align 8
  %10 = alloca i64, align 8
  %11 = alloca ptr, align 8
  %12 = alloca ptr, align 8
  %13 = alloca i64, align 8
  %14 = alloca [16 x i8], align 16
  %15 = alloca i64, align 8
  %16 = alloca i64, align 8
  %17 = alloca i64, align 8
  %18 = alloca i32, align 4
  store ptr %0, ptr %8, align 8, !tbaa !3
  store ptr %1, ptr %9, align 8, !tbaa !10
  store i64 %2, ptr %10, align 8, !tbaa !21
  store ptr %3, ptr %11, align 8, !tbaa !26
  store ptr %4, ptr %12, align 8, !tbaa !10
  store i64 %5, ptr %13, align 8, !tbaa !21
  call void @llvm.lifetime.start.p0(i64 16, ptr %14) #6
  call void @llvm.lifetime.start.p0(i64 8, ptr %15) #6
  call void @llvm.lifetime.start.p0(i64 8, ptr %16) #6
  call void @llvm.lifetime.start.p0(i64 8, ptr %17) #6
  br label %19

19:                                               ; preds = %6
  br label %20

20:                                               ; preds = %19
  br label %21

21:                                               ; preds = %20
  br label %22

22:                                               ; preds = %21
  br label %23

23:                                               ; preds = %22
  br label %24

24:                                               ; preds = %23
  %25 = load ptr, ptr %11, align 8, !tbaa !26
  store i64 0, ptr %25, align 8, !tbaa !21
  %26 = load ptr, ptr %8, align 8, !tbaa !3
  %27 = getelementptr inbounds nuw %struct.mbedtls_gcm_context, ptr %26, i32 0, i32 3
  %28 = load i64, ptr %27, align 8, !tbaa !34
  %29 = mul i64 %28, 8
  store i64 %29, ptr %16, align 8, !tbaa !21
  %30 = load ptr, ptr %8, align 8, !tbaa !3
  %31 = getelementptr inbounds nuw %struct.mbedtls_gcm_context, ptr %30, i32 0, i32 4
  %32 = load i64, ptr %31, align 8, !tbaa !35
  %33 = mul i64 %32, 8
  store i64 %33, ptr %17, align 8, !tbaa !21
  %34 = load ptr, ptr %8, align 8, !tbaa !3
  %35 = getelementptr inbounds nuw %struct.mbedtls_gcm_context, ptr %34, i32 0, i32 3
  %36 = load i64, ptr %35, align 8, !tbaa !34
  %37 = icmp eq i64 %36, 0
  br i1 %37, label %38, label %52

38:                                               ; preds = %24
  %39 = load ptr, ptr %8, align 8, !tbaa !3
  %40 = getelementptr inbounds nuw %struct.mbedtls_gcm_context, ptr %39, i32 0, i32 4
  %41 = load i64, ptr %40, align 8, !tbaa !35
  %42 = urem i64 %41, 16
  %43 = icmp ne i64 %42, 0
  br i1 %43, label %44, label %52

44:                                               ; preds = %38
  %45 = load ptr, ptr %8, align 8, !tbaa !3
  %46 = load ptr, ptr %8, align 8, !tbaa !3
  %47 = getelementptr inbounds nuw %struct.mbedtls_gcm_context, ptr %46, i32 0, i32 7
  %48 = getelementptr inbounds [16 x i8], ptr %47, i64 0, i64 0
  %49 = load ptr, ptr %8, align 8, !tbaa !3
  %50 = getelementptr inbounds nuw %struct.mbedtls_gcm_context, ptr %49, i32 0, i32 7
  %51 = getelementptr inbounds [16 x i8], ptr %50, i64 0, i64 0
  call void @_ZL8gcm_multP19mbedtls_gcm_contextPKhPh(ptr noundef %45, ptr noundef %48, ptr noundef %51)
  br label %52

52:                                               ; preds = %44, %38, %24
  %53 = load i64, ptr %13, align 8, !tbaa !21
  %54 = icmp ugt i64 %53, 16
  br i1 %54, label %58, label %55

55:                                               ; preds = %52
  %56 = load i64, ptr %13, align 8, !tbaa !21
  %57 = icmp ult i64 %56, 4
  br i1 %57, label %58, label %59

58:                                               ; preds = %55, %52
  store i32 -20, ptr %7, align 4
  store i32 1, ptr %18, align 4
  br label %220

59:                                               ; preds = %55
  %60 = load ptr, ptr %8, align 8, !tbaa !3
  %61 = getelementptr inbounds nuw %struct.mbedtls_gcm_context, ptr %60, i32 0, i32 3
  %62 = load i64, ptr %61, align 8, !tbaa !34
  %63 = urem i64 %62, 16
  %64 = icmp ne i64 %63, 0
  br i1 %64, label %65, label %73

65:                                               ; preds = %59
  %66 = load ptr, ptr %8, align 8, !tbaa !3
  %67 = load ptr, ptr %8, align 8, !tbaa !3
  %68 = getelementptr inbounds nuw %struct.mbedtls_gcm_context, ptr %67, i32 0, i32 7
  %69 = getelementptr inbounds [16 x i8], ptr %68, i64 0, i64 0
  %70 = load ptr, ptr %8, align 8, !tbaa !3
  %71 = getelementptr inbounds nuw %struct.mbedtls_gcm_context, ptr %70, i32 0, i32 7
  %72 = getelementptr inbounds [16 x i8], ptr %71, i64 0, i64 0
  call void @_ZL8gcm_multP19mbedtls_gcm_contextPKhPh(ptr noundef %66, ptr noundef %69, ptr noundef %72)
  br label %73

73:                                               ; preds = %65, %59
  %74 = load ptr, ptr %12, align 8, !tbaa !10
  %75 = load ptr, ptr %8, align 8, !tbaa !3
  %76 = getelementptr inbounds nuw %struct.mbedtls_gcm_context, ptr %75, i32 0, i32 5
  %77 = getelementptr inbounds [16 x i8], ptr %76, i64 0, i64 0
  %78 = load i64, ptr %13, align 8, !tbaa !21
  call void @llvm.memcpy.p0.p0.i64(ptr align 1 %74, ptr align 8 %77, i64 %78, i1 false)
  %79 = load i64, ptr %16, align 8, !tbaa !21
  %80 = icmp ne i64 %79, 0
  br i1 %80, label %84, label %81

81:                                               ; preds = %73
  %82 = load i64, ptr %17, align 8, !tbaa !21
  %83 = icmp ne i64 %82, 0
  br i1 %83, label %84, label %219

84:                                               ; preds = %81, %73
  %85 = getelementptr inbounds [16 x i8], ptr %14, i64 0, i64 0
  call void @llvm.memset.p0.i64(ptr align 16 %85, i8 0, i64 16, i1 false)
  %86 = load i64, ptr %17, align 8, !tbaa !21
  %87 = lshr i64 %86, 32
  %88 = lshr i64 %87, 24
  %89 = and i64 %88, 255
  %90 = trunc i64 %89 to i8
  %91 = getelementptr inbounds [16 x i8], ptr %14, i64 0, i64 0
  store i8 %90, ptr %91, align 16, !tbaa !23
  %92 = load i64, ptr %17, align 8, !tbaa !21
  %93 = lshr i64 %92, 32
  %94 = lshr i64 %93, 16
  %95 = and i64 %94, 255
  %96 = trunc i64 %95 to i8
  %97 = getelementptr inbounds [16 x i8], ptr %14, i64 0, i64 1
  store i8 %96, ptr %97, align 1, !tbaa !23
  %98 = load i64, ptr %17, align 8, !tbaa !21
  %99 = lshr i64 %98, 32
  %100 = lshr i64 %99, 8
  %101 = and i64 %100, 255
  %102 = trunc i64 %101 to i8
  %103 = getelementptr inbounds [16 x i8], ptr %14, i64 0, i64 2
  store i8 %102, ptr %103, align 2, !tbaa !23
  %104 = load i64, ptr %17, align 8, !tbaa !21
  %105 = lshr i64 %104, 32
  %106 = and i64 %105, 255
  %107 = trunc i64 %106 to i8
  %108 = getelementptr inbounds [16 x i8], ptr %14, i64 0, i64 3
  store i8 %107, ptr %108, align 1, !tbaa !23
  %109 = load i64, ptr %17, align 8, !tbaa !21
  %110 = lshr i64 %109, 24
  %111 = and i64 %110, 255
  %112 = trunc i64 %111 to i8
  %113 = getelementptr inbounds [16 x i8], ptr %14, i64 0, i64 4
  store i8 %112, ptr %113, align 4, !tbaa !23
  %114 = load i64, ptr %17, align 8, !tbaa !21
  %115 = lshr i64 %114, 16
  %116 = and i64 %115, 255
  %117 = trunc i64 %116 to i8
  %118 = getelementptr inbounds [16 x i8], ptr %14, i64 0, i64 5
  store i8 %117, ptr %118, align 1, !tbaa !23
  %119 = load i64, ptr %17, align 8, !tbaa !21
  %120 = lshr i64 %119, 8
  %121 = and i64 %120, 255
  %122 = trunc i64 %121 to i8
  %123 = getelementptr inbounds [16 x i8], ptr %14, i64 0, i64 6
  store i8 %122, ptr %123, align 2, !tbaa !23
  %124 = load i64, ptr %17, align 8, !tbaa !21
  %125 = and i64 %124, 255
  %126 = trunc i64 %125 to i8
  %127 = getelementptr inbounds [16 x i8], ptr %14, i64 0, i64 7
  store i8 %126, ptr %127, align 1, !tbaa !23
  %128 = load i64, ptr %16, align 8, !tbaa !21
  %129 = lshr i64 %128, 32
  %130 = lshr i64 %129, 24
  %131 = and i64 %130, 255
  %132 = trunc i64 %131 to i8
  %133 = getelementptr inbounds [16 x i8], ptr %14, i64 0, i64 8
  store i8 %132, ptr %133, align 8, !tbaa !23
  %134 = load i64, ptr %16, align 8, !tbaa !21
  %135 = lshr i64 %134, 32
  %136 = lshr i64 %135, 16
  %137 = and i64 %136, 255
  %138 = trunc i64 %137 to i8
  %139 = getelementptr inbounds [16 x i8], ptr %14, i64 0, i64 9
  store i8 %138, ptr %139, align 1, !tbaa !23
  %140 = load i64, ptr %16, align 8, !tbaa !21
  %141 = lshr i64 %140, 32
  %142 = lshr i64 %141, 8
  %143 = and i64 %142, 255
  %144 = trunc i64 %143 to i8
  %145 = getelementptr inbounds [16 x i8], ptr %14, i64 0, i64 10
  store i8 %144, ptr %145, align 2, !tbaa !23
  %146 = load i64, ptr %16, align 8, !tbaa !21
  %147 = lshr i64 %146, 32
  %148 = and i64 %147, 255
  %149 = trunc i64 %148 to i8
  %150 = getelementptr inbounds [16 x i8], ptr %14, i64 0, i64 11
  store i8 %149, ptr %150, align 1, !tbaa !23
  %151 = load i64, ptr %16, align 8, !tbaa !21
  %152 = lshr i64 %151, 24
  %153 = and i64 %152, 255
  %154 = trunc i64 %153 to i8
  %155 = getelementptr inbounds [16 x i8], ptr %14, i64 0, i64 12
  store i8 %154, ptr %155, align 4, !tbaa !23
  %156 = load i64, ptr %16, align 8, !tbaa !21
  %157 = lshr i64 %156, 16
  %158 = and i64 %157, 255
  %159 = trunc i64 %158 to i8
  %160 = getelementptr inbounds [16 x i8], ptr %14, i64 0, i64 13
  store i8 %159, ptr %160, align 1, !tbaa !23
  %161 = load i64, ptr %16, align 8, !tbaa !21
  %162 = lshr i64 %161, 8
  %163 = and i64 %162, 255
  %164 = trunc i64 %163 to i8
  %165 = getelementptr inbounds [16 x i8], ptr %14, i64 0, i64 14
  store i8 %164, ptr %165, align 2, !tbaa !23
  %166 = load i64, ptr %16, align 8, !tbaa !21
  %167 = and i64 %166, 255
  %168 = trunc i64 %167 to i8
  %169 = getelementptr inbounds [16 x i8], ptr %14, i64 0, i64 15
  store i8 %168, ptr %169, align 1, !tbaa !23
  store i64 0, ptr %15, align 8, !tbaa !21
  br label %170

170:                                              ; preds = %186, %84
  %171 = load i64, ptr %15, align 8, !tbaa !21
  %172 = icmp ult i64 %171, 16
  br i1 %172, label %173, label %189

173:                                              ; preds = %170
  %174 = load i64, ptr %15, align 8, !tbaa !21
  %175 = getelementptr inbounds nuw [16 x i8], ptr %14, i64 0, i64 %174
  %176 = load i8, ptr %175, align 1, !tbaa !23
  %177 = zext i8 %176 to i32
  %178 = load ptr, ptr %8, align 8, !tbaa !3
  %179 = getelementptr inbounds nuw %struct.mbedtls_gcm_context, ptr %178, i32 0, i32 7
  %180 = load i64, ptr %15, align 8, !tbaa !21
  %181 = getelementptr inbounds nuw [16 x i8], ptr %179, i64 0, i64 %180
  %182 = load i8, ptr %181, align 1, !tbaa !23
  %183 = zext i8 %182 to i32
  %184 = xor i32 %183, %177
  %185 = trunc i32 %184 to i8
  store i8 %185, ptr %181, align 1, !tbaa !23
  br label %186

186:                                              ; preds = %173
  %187 = load i64, ptr %15, align 8, !tbaa !21
  %188 = add i64 %187, 1
  store i64 %188, ptr %15, align 8, !tbaa !21
  br label %170, !llvm.loop !47

189:                                              ; preds = %170
  %190 = load ptr, ptr %8, align 8, !tbaa !3
  %191 = load ptr, ptr %8, align 8, !tbaa !3
  %192 = getelementptr inbounds nuw %struct.mbedtls_gcm_context, ptr %191, i32 0, i32 7
  %193 = getelementptr inbounds [16 x i8], ptr %192, i64 0, i64 0
  %194 = load ptr, ptr %8, align 8, !tbaa !3
  %195 = getelementptr inbounds nuw %struct.mbedtls_gcm_context, ptr %194, i32 0, i32 7
  %196 = getelementptr inbounds [16 x i8], ptr %195, i64 0, i64 0
  call void @_ZL8gcm_multP19mbedtls_gcm_contextPKhPh(ptr noundef %190, ptr noundef %193, ptr noundef %196)
  store i64 0, ptr %15, align 8, !tbaa !21
  br label %197

197:                                              ; preds = %215, %189
  %198 = load i64, ptr %15, align 8, !tbaa !21
  %199 = load i64, ptr %13, align 8, !tbaa !21
  %200 = icmp ult i64 %198, %199
  br i1 %200, label %201, label %218

201:                                              ; preds = %197
  %202 = load ptr, ptr %8, align 8, !tbaa !3
  %203 = getelementptr inbounds nuw %struct.mbedtls_gcm_context, ptr %202, i32 0, i32 7
  %204 = load i64, ptr %15, align 8, !tbaa !21
  %205 = getelementptr inbounds nuw [16 x i8], ptr %203, i64 0, i64 %204
  %206 = load i8, ptr %205, align 1, !tbaa !23
  %207 = zext i8 %206 to i32
  %208 = load ptr, ptr %12, align 8, !tbaa !10
  %209 = load i64, ptr %15, align 8, !tbaa !21
  %210 = getelementptr inbounds nuw i8, ptr %208, i64 %209
  %211 = load i8, ptr %210, align 1, !tbaa !23
  %212 = zext i8 %211 to i32
  %213 = xor i32 %212, %207
  %214 = trunc i32 %213 to i8
  store i8 %214, ptr %210, align 1, !tbaa !23
  br label %215

215:                                              ; preds = %201
  %216 = load i64, ptr %15, align 8, !tbaa !21
  %217 = add i64 %216, 1
  store i64 %217, ptr %15, align 8, !tbaa !21
  br label %197, !llvm.loop !48

218:                                              ; preds = %197
  br label %219

219:                                              ; preds = %218, %81
  store i32 0, ptr %7, align 4
  store i32 1, ptr %18, align 4
  br label %220

220:                                              ; preds = %219, %58
  call void @llvm.lifetime.end.p0(i64 8, ptr %17) #6
  call void @llvm.lifetime.end.p0(i64 8, ptr %16) #6
  call void @llvm.lifetime.end.p0(i64 8, ptr %15) #6
  call void @llvm.lifetime.end.p0(i64 16, ptr %14) #6
  %221 = load i32, ptr %7, align 4
  ret i32 %221
}