; Function Attrs: mustprogress nofree norecurse nosync nounwind memory(argmem: readwrite) uwtable
define hidden range(i32 -20, 1) i32 @mbedtls_gcm_finish(ptr noundef captures(none) %0, ptr readnone captures(none) %1, i64 %2, ptr noundef writeonly captures(none) initializes((0, 8)) %3, ptr noundef captures(none) %4, i64 noundef %5) local_unnamed_addr #6 {
  %7 = alloca [16 x i8], align 16
  call void @llvm.lifetime.start.p0(i64 16, ptr nonnull %7) #8
  store i64 0, ptr %3, align 8, !tbaa !13
  %8 = getelementptr inbounds nuw i8, ptr %0, i64 328
  %9 = load i64, ptr %8, align 8, !tbaa !34
  %10 = shl i64 %9, 3
  %11 = getelementptr inbounds nuw i8, ptr %0, i64 336
  %12 = load i64, ptr %11, align 8, !tbaa !29
  %13 = shl i64 %12, 3
  %14 = icmp ne i64 %9, 0
  %15 = and i64 %12, 15
  %.not = icmp eq i64 %15, 0
  %or.cond56 = select i1 %14, i1 true, i1 %.not
  br i1 %or.cond56, label %18, label %16

16:                                               ; preds = %6
  %17 = getelementptr inbounds nuw i8, ptr %0, i64 376
  tail call fastcc void @_ZL8gcm_multP19mbedtls_gcm_contextPKhPh(ptr noundef nonnull %0, ptr noundef nonnull %17, ptr noundef nonnull %17)
  br label %18

18:                                               ; preds = %16, %6
  %19 = add i64 %5, -17
  %or.cond = icmp ult i64 %19, -13
  br i1 %or.cond, label %.loopexit, label %20

20:                                               ; preds = %18
  %21 = load i64, ptr %8, align 8, !tbaa !34
  %22 = and i64 %21, 15
  %.not55 = icmp eq i64 %22, 0
  br i1 %.not55, label %25, label %23

23:                                               ; preds = %20
  %24 = getelementptr inbounds nuw i8, ptr %0, i64 376
  tail call fastcc void @_ZL8gcm_multP19mbedtls_gcm_contextPKhPh(ptr noundef nonnull %0, ptr noundef nonnull %24, ptr noundef nonnull %24)
  br label %25

25:                                               ; preds = %23, %20
  %26 = getelementptr inbounds nuw i8, ptr %0, i64 344
  tail call void @llvm.memcpy.p0.p0.i64(ptr align 1 %4, ptr nonnull align 8 %26, i64 %5, i1 false)
  %27 = icmp ne i64 %10, 0
  %28 = icmp ne i64 %13, 0
  %or.cond3 = select i1 %27, i1 true, i1 %28
  br i1 %or.cond3, label %29, label %.loopexit

29:                                               ; preds = %25
  %30 = lshr i64 %13, 32
  %31 = lshr i64 %13, 56
  %32 = trunc nuw i64 %31 to i8
  store i8 %32, ptr %7, align 16, !tbaa !15
  %33 = lshr i64 %13, 48
  %34 = trunc i64 %33 to i8
  %35 = getelementptr inbounds nuw i8, ptr %7, i64 1
  store i8 %34, ptr %35, align 1, !tbaa !15
  %36 = lshr i64 %13, 40
  %37 = trunc i64 %36 to i8
  %38 = getelementptr inbounds nuw i8, ptr %7, i64 2
  store i8 %37, ptr %38, align 2, !tbaa !15
  %39 = trunc i64 %30 to i8
  %40 = getelementptr inbounds nuw i8, ptr %7, i64 3
  store i8 %39, ptr %40, align 1, !tbaa !15
  %41 = lshr i64 %13, 24
  %42 = trunc i64 %41 to i8
  %43 = getelementptr inbounds nuw i8, ptr %7, i64 4
  store i8 %42, ptr %43, align 4, !tbaa !15
  %44 = lshr i64 %13, 16
  %45 = trunc i64 %44 to i8
  %46 = getelementptr inbounds nuw i8, ptr %7, i64 5
  store i8 %45, ptr %46, align 1, !tbaa !15
  %47 = lshr i64 %13, 8
  %48 = trunc i64 %47 to i8
  %49 = getelementptr inbounds nuw i8, ptr %7, i64 6
  store i8 %48, ptr %49, align 2, !tbaa !15
  %50 = trunc i64 %13 to i8
  %51 = getelementptr inbounds nuw i8, ptr %7, i64 7
  store i8 %50, ptr %51, align 1, !tbaa !15
  %52 = lshr i64 %10, 32
  %53 = lshr i64 %10, 56
  %54 = trunc nuw i64 %53 to i8
  %55 = getelementptr inbounds nuw i8, ptr %7, i64 8
  store i8 %54, ptr %55, align 8, !tbaa !15
  %56 = lshr i64 %10, 48
  %57 = trunc i64 %56 to i8
  %58 = getelementptr inbounds nuw i8, ptr %7, i64 9
  store i8 %57, ptr %58, align 1, !tbaa !15
  %59 = lshr i64 %10, 40
  %60 = trunc i64 %59 to i8
  %61 = getelementptr inbounds nuw i8, ptr %7, i64 10
  store i8 %60, ptr %61, align 2, !tbaa !15
  %62 = trunc i64 %52 to i8
  %63 = getelementptr inbounds nuw i8, ptr %7, i64 11
  store i8 %62, ptr %63, align 1, !tbaa !15
  %64 = lshr i64 %10, 24
  %65 = trunc i64 %64 to i8
  %66 = getelementptr inbounds nuw i8, ptr %7, i64 12
  store i8 %65, ptr %66, align 4, !tbaa !15
  %67 = lshr i64 %10, 16
  %68 = trunc i64 %67 to i8
  %69 = getelementptr inbounds nuw i8, ptr %7, i64 13
  store i8 %68, ptr %69, align 1, !tbaa !15
  %70 = lshr i64 %10, 8
  %71 = trunc i64 %70 to i8
  %72 = getelementptr inbounds nuw i8, ptr %7, i64 14
  store i8 %71, ptr %72, align 2, !tbaa !15
  %73 = trunc i64 %10 to i8
  %74 = getelementptr inbounds nuw i8, ptr %7, i64 15
  store i8 %73, ptr %74, align 1, !tbaa !15
  %75 = getelementptr inbounds nuw i8, ptr %0, i64 376
  br label %76

76:                                               ; preds = %29, %76
  %.05357 = phi i64 [ 0, %29 ], [ %82, %76 ]
  %77 = getelementptr inbounds nuw [16 x i8], ptr %7, i64 0, i64 %.05357
  %78 = load i8, ptr %77, align 1, !tbaa !15
  %79 = getelementptr inbounds nuw [16 x i8], ptr %75, i64 0, i64 %.05357
  %80 = load i8, ptr %79, align 1, !tbaa !15
  %81 = xor i8 %80, %78
  store i8 %81, ptr %79, align 1, !tbaa !15
  %82 = add nuw nsw i64 %.05357, 1
  %exitcond.not = icmp eq i64 %82, 16
  br i1 %exitcond.not, label %83, label %76, !llvm.loop !38

83:                                               ; preds = %76
  tail call fastcc void @_ZL8gcm_multP19mbedtls_gcm_contextPKhPh(ptr noundef nonnull %0, ptr noundef nonnull %75, ptr noundef nonnull %75)
  %.not59 = icmp eq i64 %5, 0
  br i1 %.not59, label %.loopexit, label %.lr.ph

.lr.ph:                                           ; preds = %83, %.lr.ph
  %.158 = phi i64 [ %89, %.lr.ph ], [ 0, %83 ]
  %84 = getelementptr inbounds nuw [16 x i8], ptr %75, i64 0, i64 %.158
  %85 = load i8, ptr %84, align 1, !tbaa !15
  %86 = getelementptr inbounds nuw i8, ptr %4, i64 %.158
  %87 = load i8, ptr %86, align 1, !tbaa !15
  %88 = xor i8 %87, %85
  store i8 %88, ptr %86, align 1, !tbaa !15
  %89 = add nuw nsw i64 %.158, 1
  %exitcond60.not = icmp eq i64 %89, %5
  br i1 %exitcond60.not, label %.loopexit, label %.lr.ph, !llvm.loop !39

.loopexit:                                        ; preds = %.lr.ph, %83, %25, %18
  %.0 = phi i32 [ -20, %18 ], [ 0, %25 ], [ 0, %83 ], [ 0, %.lr.ph ]
  call void @llvm.lifetime.end.p0(i64 16, ptr nonnull %7) #8
  ret i32 %.0
}